target datalayout = "e-m:e-p270:32:32-p271:32:32-p272:64:64-i64:64-i128:128-f80:128-n8:16:32:64-S128"
target triple = "x86_64-pc-linux-gnu"

@.str = private unnamed_addr constant [19 x i8] c"%s: dlopen(%s): %s\00", align 1
@__func__.plugin_peek = private unnamed_addr constant [12 x i8] c"plugin_peek\00", align 1

; Function Attrs: nounwind uwtable
define dso_local i32 @plugin_peek(ptr noundef %0, ptr noundef %1, i64 noundef %2) #0 {
  %4 = alloca i32, align 4
  %5 = alloca ptr, align 8
  %6 = alloca ptr, align 8
  %7 = alloca i64, align 8
  %8 = alloca i32, align 4
  %9 = alloca ptr, align 8
  %10 = alloca i32, align 4
  store ptr %0, ptr %5, align 8
  store ptr %1, ptr %6, align 8
  store i64 %2, ptr %7, align 8
  call void @llvm.lifetime.start.p0(i64 4, ptr %8) #7
  call void @llvm.lifetime.start.p0(i64 8, ptr %9) #7
  %11 = call ptr @dlerror() #7
  %12 = load ptr, ptr %5, align 8
  %13 = call ptr @dlopen(ptr noundef %12, i32 noundef 1) #7
  store ptr %13, ptr %9, align 8
  %14 = icmp ne ptr %13, null
  br i1 %14, label %28, label %15

15:                                               ; preds = %3
  br label %16

16:                                               ; preds = %15
  br label %17

17:                                               ; preds = %16
  %18 = call i32 @get_log_level()
  %19 = icmp sge i32 %18, 7
  br i1 %19, label %20, label %23

20:                                               ; preds = %17
  %21 = load ptr, ptr %5, align 8
  %22 = call ptr @dlerror() #7
  call void (i32, ptr, ...) @log_var(i32 noundef 7, ptr noundef @.str, ptr noundef @__func__.plugin_peek, ptr noundef %21, ptr noundef %22)
  br label %23

23:                                               ; preds = %20, %17
  br label %24

24:                                               ; preds = %23
  br label %25

25:                                               ; preds = %24
  br label %26

26:                                               ; preds = %25
  br label %27

27:                                               ; preds = %26
  store i32 8007, ptr %4, align 4
  store i32 1, ptr %10, align 4
  br label %37

28:                                               ; preds = %3
  %29 = load ptr, ptr %9, align 8
  %30 = load ptr, ptr %6, align 8
  %31 = load i64, ptr %7, align 8
  %32 = load ptr, ptr %5, align 8
  %33 = call i32 @_verify_syms(ptr noundef %29, ptr noundef %30, i64 noundef %31, ptr noundef @__func__.plugin_peek, ptr noundef %32)
  store i32 %33, ptr %8, align 4
  %34 = load ptr, ptr %9, align 8
  %35 = call i32 @dlclose(ptr noundef %34) #7
  %36 = load i32, ptr %8, align 4
  store i32 %36, ptr %4, align 4
  store i32 1, ptr %10, align 4
  br label %37

37:                                               ; preds = %28, %27
  call void @llvm.lifetime.end.p0(i64 8, ptr %9) #7
  call void @llvm.lifetime.end.p0(i64 4, ptr %8) #7
  %38 = load i32, ptr %4, align 4
  ret i32 %38
}