; Function Attrs: nounwind uwtable
define dso_local range(i32 0, 8011) i32 @plugin_peek(ptr noundef %0, ptr noundef %1, i64 noundef %2) local_unnamed_addr #0 {
  %4 = tail call ptr @dlerror() #10
  %5 = tail call ptr @dlopen(ptr noundef %0, i32 noundef 1) #10
  %.not = icmp eq ptr %5, null
  br i1 %.not, label %6, label %11

6:                                                ; preds = %3
  %7 = tail call i32 @get_log_level() #10
  %8 = icmp sgt i32 %7, 6
  br i1 %8, label %9, label %14

9:                                                ; preds = %6
  %10 = tail call ptr @dlerror() #10
  tail call void (i32, ptr, ...) @log_var(i32 noundef 7, ptr noundef nonnull @.str, ptr noundef nonnull @__func__.plugin_peek, ptr noundef %0, ptr noundef %10) #10
  br label %14

11:                                               ; preds = %3
  %12 = tail call fastcc i32 @_verify_syms(ptr noundef %5, ptr noundef %1, i64 noundef %2, ptr noundef nonnull @__func__.plugin_peek, ptr noundef %0)
  %13 = tail call i32 @dlclose(ptr noundef nonnull %5) #10
  br label %14

14:                                               ; preds = %6, %9, %11
  %.0 = phi i32 [ %12, %11 ], [ 8007, %9 ], [ 8007, %6 ]
  ret i32 %.0
}